; ModuleID = '39/1108.c'
source_filename = "39/1108.c"
target datalayout = "e-m:e-p270:32:32-p271:32:32-p272:64:64-i64:64-f80:128-n8:16:32:64-S128"
target triple = "x86_64-pc-linux-gnu"

%struct.point = type { [21 x i8], i8, i8, i32, i32, i32, i32 }

@.str = private unnamed_addr constant [3 x i8] c"%d\00", align 1
@.str.1 = private unnamed_addr constant [18 x i8] c"%s %d %d %c %c %d\00", align 1
@.str.2 = private unnamed_addr constant [4 x i8] c"%s\0A\00", align 1
@.str.3 = private unnamed_addr constant [4 x i8] c"%d\0A\00", align 1

; Function Attrs: noinline nounwind uwtable
define dso_local i32 @main() #0 {
  %1 = alloca i32, align 4
  %2 = alloca i32, align 4
  %3 = alloca i32, align 4
  %4 = alloca i32, align 4
  %5 = alloca i32, align 4
  %6 = alloca i32, align 4
  %7 = alloca [100 x %struct.point], align 16
  store i32 0, i32* %1, align 4
  store i32 0, i32* %4, align 4
  store i32 0, i32* %5, align 4
  %8 = call i32 (i8*, ...) @__isoc99_scanf(i8* getelementptr inbounds ([3 x i8], [3 x i8]* @.str, i64 0, i64 0), i32* %2)
  store i32 0, i32* %3, align 4
  br label %9

9:                                                ; preds = %154, %0
  %10 = load i32, i32* %3, align 4
  %11 = load i32, i32* %2, align 4
  %12 = icmp slt i32 %10, %11
  br i1 %12, label %13, label %157

13:                                               ; preds = %9
  %14 = load i32, i32* %3, align 4
  %15 = sext i32 %14 to i64
  %16 = getelementptr inbounds [100 x %struct.point], [100 x %struct.point]* %7, i64 0, i64 %15
  %17 = getelementptr inbounds %struct.point, %struct.point* %16, i32 0, i32 0
  %18 = getelementptr inbounds [21 x i8], [21 x i8]* %17, i64 0, i64 0
  %19 = load i32, i32* %3, align 4
  %20 = sext i32 %19 to i64
  %21 = getelementptr inbounds [100 x %struct.point], [100 x %struct.point]* %7, i64 0, i64 %20
  %22 = getelementptr inbounds %struct.point, %struct.point* %21, i32 0, i32 3
  %23 = load i32, i32* %3, align 4
  %24 = sext i32 %23 to i64
  %25 = getelementptr inbounds [100 x %struct.point], [100 x %struct.point]* %7, i64 0, i64 %24
  %26 = getelementptr inbounds %struct.point, %struct.point* %25, i32 0, i32 4
  %27 = load i32, i32* %3, align 4
  %28 = sext i32 %27 to i64
  %29 = getelementptr inbounds [100 x %struct.point], [100 x %struct.point]* %7, i64 0, i64 %28
  %30 = getelementptr inbounds %struct.point, %struct.point* %29, i32 0, i32 1
  %31 = load i32, i32* %3, align 4
  %32 = sext i32 %31 to i64
  %33 = getelementptr inbounds [100 x %struct.point], [100 x %struct.point]* %7, i64 0, i64 %32
  %34 = getelementptr inbounds %struct.point, %struct.point* %33, i32 0, i32 2
  %35 = load i32, i32* %3, align 4
  %36 = sext i32 %35 to i64
  %37 = getelementptr inbounds [100 x %struct.point], [100 x %struct.point]* %7, i64 0, i64 %36
  %38 = getelementptr inbounds %struct.point, %struct.point* %37, i32 0, i32 5
  %39 = call i32 (i8*, ...) @__isoc99_scanf(i8* getelementptr inbounds ([18 x i8], [18 x i8]* @.str.1, i64 0, i64 0), i8* %18, i32* %22, i32* %26, i8* %30, i8* %34, i32* %38)
  %40 = load i32, i32* %3, align 4
  %41 = sext i32 %40 to i64
  %42 = getelementptr inbounds [100 x %struct.point], [100 x %struct.point]* %7, i64 0, i64 %41
  %43 = getelementptr inbounds %struct.point, %struct.point* %42, i32 0, i32 6
  store i32 0, i32* %43, align 4
  %44 = load i32, i32* %3, align 4
  %45 = sext i32 %44 to i64
  %46 = getelementptr inbounds [100 x %struct.point], [100 x %struct.point]* %7, i64 0, i64 %45
  %47 = getelementptr inbounds %struct.point, %struct.point* %46, i32 0, i32 3
  %48 = load i32, i32* %47, align 8
  %49 = icmp sgt i32 %48, 80
  br i1 %49, label %50, label %66

50:                                               ; preds = %13
  %51 = load i32, i32* %3, align 4
  %52 = sext i32 %51 to i64
  %53 = getelementptr inbounds [100 x %struct.point], [100 x %struct.point]* %7, i64 0, i64 %52
  %54 = getelementptr inbounds %struct.point, %struct.point* %53, i32 0, i32 5
  %55 = load i32, i32* %54, align 8
  %56 = icmp sgt i32 %55, 0
  br i1 %56, label %57, label %66

57:                                               ; preds = %50
  %58 = load i32, i32* %3, align 4
  %59 = sext i32 %58 to i64
  %60 = getelementptr inbounds [100 x %struct.point], [100 x %struct.point]* %7, i64 0, i64 %59
  %61 = getelementptr inbounds %struct.point, %struct.point* %60, i32 0, i32 6
  %62 = load i32, i32* %61, align 4
  %63 = add nsw i32 %62, 8000
  store i32 %63, i32* %61, align 4
  %64 = load i32, i32* %4, align 4
  %65 = add nsw i32 %64, 8000
  store i32 %65, i32* %4, align 4
  br label %66

66:                                               ; preds = %57, %50, %13
  %67 = load i32, i32* %3, align 4
  %68 = sext i32 %67 to i64
  %69 = getelementptr inbounds [100 x %struct.point], [100 x %struct.point]* %7, i64 0, i64 %68
  %70 = getelementptr inbounds %struct.point, %struct.point* %69, i32 0, i32 3
  %71 = load i32, i32* %70, align 8
  %72 = icmp sgt i32 %71, 85
  br i1 %72, label %73, label %89

73:                                               ; preds = %66
  %74 = load i32, i32* %3, align 4
  %75 = sext i32 %74 to i64
  %76 = getelementptr inbounds [100 x %struct.point], [100 x %struct.point]* %7, i64 0, i64 %75
  %77 = getelementptr inbounds %struct.point, %struct.point* %76, i32 0, i32 4
  %78 = load i32, i32* %77, align 4
  %79 = icmp sgt i32 %78, 80
  br i1 %79, label %80, label %89

80:                                               ; preds = %73
  %81 = load i32, i32* %3, align 4
  %82 = sext i32 %81 to i64
  %83 = getelementptr inbounds [100 x %struct.point], [100 x %struct.point]* %7, i64 0, i64 %82
  %84 = getelementptr inbounds %struct.point, %struct.point* %83, i32 0, i32 6
  %85 = load i32, i32* %84, align 4
  %86 = add nsw i32 %85, 4000
  store i32 %86, i32* %84, align 4
  %87 = load i32, i32* %4, align 4
  %88 = add nsw i32 %87, 4000
  store i32 %88, i32* %4, align 4
  br label %89

89:                                               ; preds = %80, %73, %66
  %90 = load i32, i32* %3, align 4
  %91 = sext i32 %90 to i64
  %92 = getelementptr inbounds [100 x %struct.point], [100 x %struct.point]* %7, i64 0, i64 %91
  %93 = getelementptr inbounds %struct.point, %struct.point* %92, i32 0, i32 3
  %94 = load i32, i32* %93, align 8
  %95 = icmp sgt i32 %94, 90
  br i1 %95, label %96, label %105

96:                                               ; preds = %89
  %97 = load i32, i32* %3, align 4
  %98 = sext i32 %97 to i64
  %99 = getelementptr inbounds [100 x %struct.point], [100 x %struct.point]* %7, i64 0, i64 %98
  %100 = getelementptr inbounds %struct.point, %struct.point* %99, i32 0, i32 6
  %101 = load i32, i32* %100, align 4
  %102 = add nsw i32 %101, 2000
  store i32 %102, i32* %100, align 4
  %103 = load i32, i32* %4, align 4
  %104 = add nsw i32 %103, 2000
  store i32 %104, i32* %4, align 4
  br label %105

105:                                              ; preds = %96, %89
  %106 = load i32, i32* %3, align 4
  %107 = sext i32 %106 to i64
  %108 = getelementptr inbounds [100 x %struct.point], [100 x %struct.point]* %7, i64 0, i64 %107
  %109 = getelementptr inbounds %struct.point, %struct.point* %108, i32 0, i32 3
  %110 = load i32, i32* %109, align 8
  %111 = icmp sgt i32 %110, 85
  br i1 %111, label %112, label %129

112:                                              ; preds = %105
  %113 = load i32, i32* %3, align 4
  %114 = sext i32 %113 to i64
  %115 = getelementptr inbounds [100 x %struct.point], [100 x %struct.point]* %7, i64 0, i64 %114
  %116 = getelementptr inbounds %struct.point, %struct.point* %115, i32 0, i32 2
  %117 = load i8, i8* %116, align 2
  %118 = sext i8 %117 to i32
  %119 = icmp eq i32 %118, 89
  br i1 %119, label %120, label %129

120:                                              ; preds = %112
  %121 = load i32, i32* %3, align 4
  %122 = sext i32 %121 to i64
  %123 = getelementptr inbounds [100 x %struct.point], [100 x %struct.point]* %7, i64 0, i64 %122
  %124 = getelementptr inbounds %struct.point, %struct.point* %123, i32 0, i32 6
  %125 = load i32, i32* %124, align 4
  %126 = add nsw i32 %125, 1000
  store i32 %126, i32* %124, align 4
  %127 = load i32, i32* %4, align 4
  %128 = add nsw i32 %127, 1000
  store i32 %128, i32* %4, align 4
  br label %129

129:                                              ; preds = %120, %112, %105
  %130 = load i32, i32* %3, align 4
  %131 = sext i32 %130 to i64
  %132 = getelementptr inbounds [100 x %struct.point], [100 x %struct.point]* %7, i64 0, i64 %131
  %133 = getelementptr inbounds %struct.point, %struct.point* %132, i32 0, i32 4
  %134 = load i32, i32* %133, align 4
  %135 = icmp sgt i32 %134, 80
  br i1 %135, label %136, label %153

136:                                              ; preds = %129
  %137 = load i32, i32* %3, align 4
  %138 = sext i32 %137 to i64
  %139 = getelementptr inbounds [100 x %struct.point], [100 x %struct.point]* %7, i64 0, i64 %138
  %140 = getelementptr inbounds %struct.point, %struct.point* %139, i32 0, i32 1
  %141 = load i8, i8* %140, align 1
  %142 = sext i8 %141 to i32
  %143 = icmp eq i32 %142, 89
  br i1 %143, label %144, label %153

144:                                              ; preds = %136
  %145 = load i32, i32* %3, align 4
  %146 = sext i32 %145 to i64
  %147 = getelementptr inbounds [100 x %struct.point], [100 x %struct.point]* %7, i64 0, i64 %146
  %148 = getelementptr inbounds %struct.point, %struct.point* %147, i32 0, i32 6
  %149 = load i32, i32* %148, align 4
  %150 = add nsw i32 %149, 850
  store i32 %150, i32* %148, align 4
  %151 = load i32, i32* %4, align 4
  %152 = add nsw i32 %151, 850
  store i32 %152, i32* %4, align 4
  br label %153

153:                                              ; preds = %144, %136, %129
  br label %154

154:                                              ; preds = %153
  %155 = load i32, i32* %3, align 4
  %156 = add nsw i32 %155, 1
  store i32 %156, i32* %3, align 4
  br label %9

157:                                              ; preds = %9
  store i32 0, i32* %3, align 4
  br label %158

158:                                              ; preds = %178, %157
  %159 = load i32, i32* %3, align 4
  %160 = load i32, i32* %2, align 4
  %161 = icmp slt i32 %159, %160
  br i1 %161, label %162, label %181

162:                                              ; preds = %158
  %163 = load i32, i32* %3, align 4
  %164 = sext i32 %163 to i64
  %165 = getelementptr inbounds [100 x %struct.point], [100 x %struct.point]* %7, i64 0, i64 %164
  %166 = getelementptr inbounds %struct.point, %struct.point* %165, i32 0, i32 6
  %167 = load i32, i32* %166, align 4
  %168 = load i32, i32* %5, align 4
  %169 = icmp sgt i32 %167, %168
  br i1 %169, label %170, label %177

170:                                              ; preds = %162
  %171 = load i32, i32* %3, align 4
  %172 = sext i32 %171 to i64
  %173 = getelementptr inbounds [100 x %struct.point], [100 x %struct.point]* %7, i64 0, i64 %172
  %174 = getelementptr inbounds %struct.point, %struct.point* %173, i32 0, i32 6
  %175 = load i32, i32* %174, align 4
  store i32 %175, i32* %5, align 4
  %176 = load i32, i32* %3, align 4
  store i32 %176, i32* %6, align 4
  br label %177

177:                                              ; preds = %170, %162
  br label %178

178:                                              ; preds = %177
  %179 = load i32, i32* %3, align 4
  %180 = add nsw i32 %179, 1
  store i32 %180, i32* %3, align 4
  br label %158

181:                                              ; preds = %158
  %182 = load i32, i32* %6, align 4
  %183 = sext i32 %182 to i64
  %184 = getelementptr inbounds [100 x %struct.point], [100 x %struct.point]* %7, i64 0, i64 %183
  %185 = getelementptr inbounds %struct.point, %struct.point* %184, i32 0, i32 0
  %186 = getelementptr inbounds [21 x i8], [21 x i8]* %185, i64 0, i64 0
  %187 = call i32 (i8*, ...) @printf(i8* getelementptr inbounds ([4 x i8], [4 x i8]* @.str.2, i64 0, i64 0), i8* %186)
  %188 = load i32, i32* %6, align 4
  %189 = sext i32 %188 to i64
  %190 = getelementptr inbounds [100 x %struct.point], [100 x %struct.point]* %7, i64 0, i64 %189
  %191 = getelementptr inbounds %struct.point, %struct.point* %190, i32 0, i32 6
  %192 = load i32, i32* %191, align 4
  %193 = call i32 (i8*, ...) @printf(i8* getelementptr inbounds ([4 x i8], [4 x i8]* @.str.3, i64 0, i64 0), i32 %192)
  %194 = load i32, i32* %4, align 4
  %195 = call i32 (i8*, ...) @printf(i8* getelementptr inbounds ([3 x i8], [3 x i8]* @.str, i64 0, i64 0), i32 %194)
  ret i32 0
}

declare dso_local i32 @__isoc99_scanf(i8*, ...) #1

declare dso_local i32 @printf(i8*, ...) #1


!llvm.module.flags = !{!0}
!llvm.ident = !{!1}

!0 = !{i32 1, !"wchar_size", i32 4}
!1 = !{!"clang version 10.0.0-4ubuntu1 "}
